target datalayout = "e-m:e-p270:32:32-p271:32:32-p272:64:64-i64:64-i128:128-f80:128-n8:16:32:64-S128"
target triple = "x86_64-pc-linux-gnu"

@proto_ip = internal global i32 0, align 4
@.str.147 = private unnamed_addr constant [9 x i8] c"ip.proto\00", align 1

; Function Attrs: null_pointer_is_valid sspstrong uwtable
define internal zeroext i1 @capture_ip(ptr noundef %0, i32 noundef %1, i32 noundef %2, ptr noundef %3, ptr noundef %4) #1 {
  %6 = alloca i1, align 1
  %7 = alloca ptr, align 8
  %8 = alloca i32, align 4
  %9 = alloca i32, align 4
  %10 = alloca ptr, align 8
  %11 = alloca ptr, align 8
  store ptr %0, ptr %7, align 8
  store i32 %1, ptr %8, align 4
  store i32 %2, ptr %9, align 4
  store ptr %3, ptr %10, align 8
  store ptr %4, ptr %11, align 8
  %12 = load i32, ptr %8, align 4
  %13 = add i32 %12, 20
  %14 = load i32, ptr %8, align 4
  %15 = icmp ugt i32 %13, %14
  br i1 %15, label %16, label %21

16:                                               ; preds = %5
  %17 = load i32, ptr %8, align 4
  %18 = add i32 %17, 20
  %19 = load i32, ptr %9, align 4
  %20 = icmp ule i32 %18, %19
  br i1 %20, label %22, label %21

21:                                               ; preds = %16, %5
  store i1 false, ptr %6, align 1
  br label %39

22:                                               ; preds = %16
  %23 = load ptr, ptr %10, align 8
  %24 = load i32, ptr @proto_ip, align 4
  call void @capture_dissector_increment_count(ptr noundef %23, i32 noundef %24)
  %25 = load ptr, ptr %7, align 8
  %26 = load i32, ptr %8, align 4
  %27 = add i32 %26, 9
  %28 = sext i32 %27 to i64
  %29 = getelementptr i8, ptr %25, i64 %28
  %30 = load i8, ptr %29, align 1
  %31 = zext i8 %30 to i32
  %32 = load ptr, ptr %7, align 8
  %33 = load i32, ptr %8, align 4
  %34 = add i32 %33, 20
  %35 = load i32, ptr %9, align 4
  %36 = load ptr, ptr %10, align 8
  %37 = load ptr, ptr %11, align 8
  %38 = call zeroext i1 @try_capture_dissector(ptr noundef @.str.147, i32 noundef %31, ptr noundef %32, i32 noundef %34, i32 noundef %35, ptr noundef %36, ptr noundef %37)
  store i1 %38, ptr %6, align 1
  br label %39

39:                                               ; preds = %22, %21
  %40 = load i1, ptr %6, align 1
  ret i1 %40
}