; Function Attrs: null_pointer_is_valid sspstrong uwtable
define internal zeroext i1 @capture_ip(ptr noundef %0, i32 noundef %1, i32 noundef %2, ptr noundef %3, ptr noundef %4) #1 {
  %6 = add i32 %1, 20
  %7 = icmp ugt i32 %1, -21
  %.not = icmp ugt i32 %6, %2
  %or.cond = or i1 %7, %.not
  br i1 %or.cond, label %16, label %8

8:                                                ; preds = %5
  %9 = load i32, ptr @proto_ip, align 4
  tail call void @capture_dissector_increment_count(ptr noundef %3, i32 noundef %9)
  %10 = add nuw i32 %1, 9
  %11 = sext i32 %10 to i64
  %12 = getelementptr i8, ptr %0, i64 %11
  %13 = load i8, ptr %12, align 1
  %14 = zext i8 %13 to i32
  %15 = tail call zeroext i1 @try_capture_dissector(ptr noundef nonnull @.str.147, i32 noundef %14, ptr noundef %0, i32 noundef %6, i32 noundef %2, ptr noundef %3, ptr noundef %4)
  br label %16

16:                                               ; preds = %5, %8
  %.0 = phi i1 [ %15, %8 ], [ false, %5 ]
  ret i1 %.0
}